; Function Attrs: inlinehint nofree nounwind uwtable
define internal void @print_errormsg(ptr noundef readonly captures(none) %0, ...) unnamed_addr #3 {
  %2 = alloca [1 x %struct.__va_list_tag], align 16
  call void @llvm.lifetime.start.p0(i64 24, ptr nonnull %2) #14
  call void @llvm.va_start.p0(ptr nonnull %2)
  %3 = load ptr, ptr @ctest_errormsg, align 8, !tbaa !7
  %4 = load i64, ptr @ctest_errorsize, align 8, !tbaa !10
  %5 = call i32 @vsnprintf(ptr noundef %3, i64 noundef %4, ptr noundef readonly %0, ptr noundef nonnull %2) #14
  %6 = icmp slt i32 %5, 0
  br i1 %6, label %7, label %9

7:                                                ; preds = %1
  %8 = load ptr, ptr @ctest_errormsg, align 8, !tbaa !7
  store i8 0, ptr %8, align 1, !tbaa !12
  br label %vprint_errormsg.exit

9:                                                ; preds = %1
  %10 = zext nneg i32 %5 to i64
  %11 = load i64, ptr @ctest_errorsize, align 8, !tbaa !10
  %.not.i = icmp ugt i64 %11, %10
  %12 = select i1 %.not.i, i64 0, i64 %11
  %13 = sub i64 %10, %12
  %14 = sub i64 %11, %13
  store i64 %14, ptr @ctest_errorsize, align 8, !tbaa !10
  %15 = load ptr, ptr @ctest_errormsg, align 8, !tbaa !7
  %16 = getelementptr inbounds nuw i8, ptr %15, i64 %13
  store ptr %16, ptr @ctest_errormsg, align 8, !tbaa !7
  br label %vprint_errormsg.exit

vprint_errormsg.exit:                             ; preds = %7, %9
  call void @llvm.va_end.p0(ptr nonnull %2)
  call void @llvm.lifetime.end.p0(i64 24, ptr nonnull %2) #14
  ret void
}